; Function Attrs: nofree norecurse nosync nounwind memory(read, argmem: readwrite, inaccessiblemem: none) uwtable
define internal void @yuv2nv20cX_LE_c(i32 %0, ptr readnone captures(none) %1, ptr noundef readonly captures(none) %2, i32 noundef %3, ptr noundef readonly captures(none) %4, ptr noundef readonly captures(none) %5, ptr noundef writeonly captures(none) %6, i32 noundef %7) #3 {
  %invariant.gep.i = getelementptr inbounds nuw i8, ptr %6, i64 2
  %9 = icmp sgt i32 %7, 0
  br i1 %9, label %.lr.ph9.i, label %yuv2p01xcX_c.exit

.lr.ph9.i:                                        ; preds = %8
  %10 = icmp sgt i32 %3, 0
  %wide.trip.count51.i = zext nneg i32 %7 to i64
  br i1 %10, label %.lr.ph.us.us.preheader.i, label %.lr.ph9.split.us.split.i

.lr.ph.us.us.preheader.i:                         ; preds = %.lr.ph9.i
  %wide.trip.count46.i = zext nneg i32 %3 to i64
  br label %.lr.ph.us.us.i

.lr.ph.us.us.i:                                   ; preds = %._crit_edge.us.us.i, %.lr.ph.us.us.preheader.i
  %indvars.iv48.i = phi i64 [ 0, %.lr.ph.us.us.preheader.i ], [ %indvars.iv.next49.i, %._crit_edge.us.us.i ]
  br label %11

11:                                               ; preds = %11, %.lr.ph.us.us.i
  %indvars.iv43.i = phi i64 [ 0, %.lr.ph.us.us.i ], [ %indvars.iv.next44.i, %11 ]
  %.03.us.us.i = phi i32 [ 65536, %.lr.ph.us.us.i ], [ %28, %11 ]
  %.0472.us.us.i = phi i32 [ 65536, %.lr.ph.us.us.i ], [ %21, %11 ]
  %12 = getelementptr inbounds nuw ptr, ptr %4, i64 %indvars.iv43.i
  %13 = load ptr, ptr %12, align 8, !tbaa !43
  %14 = getelementptr inbounds nuw i16, ptr %13, i64 %indvars.iv48.i
  %15 = load i16, ptr %14, align 2, !tbaa !39
  %16 = sext i16 %15 to i32
  %17 = getelementptr inbounds nuw i16, ptr %2, i64 %indvars.iv43.i
  %18 = load i16, ptr %17, align 2, !tbaa !39
  %19 = sext i16 %18 to i32
  %20 = mul nsw i32 %19, %16
  %21 = add nsw i32 %20, %.0472.us.us.i
  %22 = getelementptr inbounds nuw ptr, ptr %5, i64 %indvars.iv43.i
  %23 = load ptr, ptr %22, align 8, !tbaa !43
  %24 = getelementptr inbounds nuw i16, ptr %23, i64 %indvars.iv48.i
  %25 = load i16, ptr %24, align 2, !tbaa !39
  %26 = sext i16 %25 to i32
  %27 = mul nsw i32 %26, %19
  %28 = add nsw i32 %27, %.03.us.us.i
  %indvars.iv.next44.i = add nuw nsw i64 %indvars.iv43.i, 1
  %exitcond47.not.i = icmp eq i64 %indvars.iv.next44.i, %wide.trip.count46.i
  br i1 %exitcond47.not.i, label %._crit_edge.us.us.i, label %11, !llvm.loop !46

._crit_edge.us.us.i:                              ; preds = %11
  %29 = ashr i32 %21, 17
  %30 = tail call i32 @llvm.smax.i32(i32 %29, i32 0)
  %31 = tail call i32 @llvm.umin.i32(i32 %30, i32 1023)
  %32 = trunc nuw nsw i32 %31 to i16
  %33 = shl nuw nsw i64 %indvars.iv48.i, 1
  %34 = getelementptr inbounds nuw i16, ptr %6, i64 %33
  store i16 %32, ptr %34, align 1, !tbaa !41
  %35 = ashr i32 %28, 17
  %36 = tail call i32 @llvm.smax.i32(i32 %35, i32 0)
  %37 = tail call i32 @llvm.umin.i32(i32 %36, i32 1023)
  %38 = trunc nuw nsw i32 %37 to i16
  %gep6.us.us.i = getelementptr inbounds nuw i16, ptr %invariant.gep.i, i64 %33
  store i16 %38, ptr %gep6.us.us.i, align 1, !tbaa !41
  %indvars.iv.next49.i = add nuw nsw i64 %indvars.iv48.i, 1
  %exitcond52.not.i = icmp eq i64 %indvars.iv.next49.i, %wide.trip.count51.i
  br i1 %exitcond52.not.i, label %yuv2p01xcX_c.exit, label %.lr.ph.us.us.i, !llvm.loop !47

.lr.ph9.split.us.split.i:                         ; preds = %.lr.ph9.i
  %39 = shl nuw nsw i64 %wide.trip.count51.i, 2
  tail call void @llvm.memset.p0.i64(ptr align 1 %6, i8 0, i64 %39, i1 false), !tbaa !41
  br label %yuv2p01xcX_c.exit

yuv2p01xcX_c.exit:                                ; preds = %._crit_edge.us.us.i, %.lr.ph9.split.us.split.i, %8
  ret void
}